; ModuleID = 'bench/ffmpeg/original/mediacodec.ll'
source_filename = "bench/ffmpeg/original/mediacodec.ll"
target datalayout = "e-m:e-p270:32:32-p271:32:32-p272:64:64-i64:64-i128:128-f80:128-n8:16:32:64-S128"
target triple = "x86_64-pc-linux-gnu"

; Function Attrs: mustprogress nofree norecurse nosync nounwind willreturn memory(none) uwtable
define noalias noundef ptr @av_mediacodec_alloc_context() local_unnamed_addr #0 {
  ret ptr null
}

; Function Attrs: mustprogress nofree norecurse nosync nounwind willreturn memory(none) uwtable
define noundef i32 @av_mediacodec_default_init(ptr noundef readnone captures(none) %0, ptr noundef readnone captures(none) %1, ptr noundef readnone captures(none) %2) local_unnamed_addr #0 {
  ret i32 -38
}

; Function Attrs: mustprogress nofree norecurse nosync nounwind willreturn memory(none) uwtable
define void @av_mediacodec_default_free(ptr noundef readnone captures(none) %0) local_unnamed_addr #0 {
  ret void
}

; Function Attrs: mustprogress nofree norecurse nosync nounwind willreturn memory(none) uwtable
define noundef i32 @av_mediacodec_release_buffer(ptr noundef readnone captures(none) %0, i32 noundef %1) local_unnamed_addr #0 {
  ret i32 -38
}

; Function Attrs: mustprogress nofree norecurse nosync nounwind willreturn memory(none) uwtable
define noundef i32 @av_mediacodec_render_buffer_at_time(ptr noundef readnone captures(none) %0, i64 noundef %1) local_unnamed_addr #0 {
  ret i32 -38
}


!llvm.module.flags = !{!0, !1, !2, !3}

!0 = !{i32 1, !"wchar_size", i32 4}
!1 = !{i32 8, !"PIC Level", i32 2}
!2 = !{i32 7, !"uwtable", i32 2}
!3 = !{i32 1, !"override-stack-alignment", i32 16}
